target datalayout = "e-m:e-p270:32:32-p271:32:32-p272:64:64-i64:64-i128:128-f80:128-n8:16:32:64-S128"
target triple = "x86_64-pc-linux-gnu"

%struct._stat_tap_ui = type { i32, ptr, ptr, ptr, i64, ptr }

; Function Attrs: null_pointer_is_valid sspstrong uwtable
define hidden zeroext i1 @register_rtd_tables(ptr noundef %0, ptr noundef %1, ptr noundef %2) #0 {
  %4 = alloca ptr, align 8
  %5 = alloca ptr, align 8
  %6 = alloca ptr, align 8
  %7 = alloca ptr, align 8
  %8 = alloca %struct._stat_tap_ui, align 8
  %9 = alloca ptr, align 8
  store ptr %0, ptr %4, align 8
  store ptr %1, ptr %5, align 8
  store ptr %2, ptr %6, align 8
  call void @llvm.lifetime.start.p0(i64 8, ptr %7) #7
  %10 = load ptr, ptr %5, align 8
  store ptr %10, ptr %7, align 8
  call void @llvm.lifetime.start.p0(i64 48, ptr %8) #7
  call void @llvm.lifetime.start.p0(i64 8, ptr %9) #7
  %11 = load ptr, ptr %7, align 8
  %12 = call ptr @rtd_table_get_tap_string(ptr noundef %11)
  store ptr %12, ptr %9, align 8
  %13 = getelementptr inbounds nuw %struct._stat_tap_ui, ptr %8, i32 0, i32 0
  store i32 6, ptr %13, align 8
  %14 = getelementptr inbounds nuw %struct._stat_tap_ui, ptr %8, i32 0, i32 1
  store ptr null, ptr %14, align 8
  %15 = load ptr, ptr %9, align 8
  %16 = getelementptr inbounds nuw %struct._stat_tap_ui, ptr %8, i32 0, i32 2
  store ptr %15, ptr %16, align 8
  %17 = getelementptr inbounds nuw %struct._stat_tap_ui, ptr %8, i32 0, i32 3
  store ptr @dissector_rtd_init, ptr %17, align 8
  %18 = getelementptr inbounds nuw %struct._stat_tap_ui, ptr %8, i32 0, i32 4
  store i64 0, ptr %18, align 8
  %19 = getelementptr inbounds nuw %struct._stat_tap_ui, ptr %8, i32 0, i32 5
  store ptr null, ptr %19, align 8
  %20 = load ptr, ptr %7, align 8
  call void @register_stat_tap_ui(ptr noundef %8, ptr noundef %20)
  %21 = load ptr, ptr %9, align 8
  call void @g_free(ptr noundef %21)
  call void @llvm.lifetime.end.p0(i64 8, ptr %9) #7
  call void @llvm.lifetime.end.p0(i64 48, ptr %8) #7
  call void @llvm.lifetime.end.p0(i64 8, ptr %7) #7
  ret i1 false
}